target datalayout = "e-m:e-p270:32:32-p271:32:32-p272:64:64-i64:64-i128:128-f80:128-n8:16:32:64-S128"
target triple = "x86_64-pc-linux-gnu"

%"class.duckdb_mbedtls::MbedTlsWrapper::AESGCMStateMBEDTLS" = type { %"class.duckdb::EncryptionState", i8, ptr }
%"class.duckdb::EncryptionState" = type { ptr }

@_ZTISt13runtime_error = external constant ptr
@.str.12 = private unnamed_addr constant [23 x i8] c"Unable to finalize AES\00", align 1

; Function Attrs: mustprogress uwtable
define hidden noundef i64 @_ZN14duckdb_mbedtls14MbedTlsWrapper18AESGCMStateMBEDTLS8FinalizeEPhmS2_m(ptr noundef nonnull align 8 dereferenceable(24) %0, ptr noundef %1, i64 noundef %2, ptr noundef %3, i64 noundef %4) unnamed_addr #0 align 2 personality ptr @__gxx_personality_v0 {
  %6 = alloca ptr, align 8
  %7 = alloca ptr, align 8
  %8 = alloca i64, align 8
  %9 = alloca ptr, align 8
  %10 = alloca i64, align 8
  %11 = alloca ptr, align 8
  %12 = alloca i64, align 8
  %13 = alloca ptr, align 8
  %14 = alloca i32, align 4
  store ptr %0, ptr %6, align 8, !tbaa !38
  store ptr %1, ptr %7, align 8, !tbaa !3
  store i64 %2, ptr %8, align 8, !tbaa !8
  store ptr %3, ptr %9, align 8, !tbaa !3
  store i64 %4, ptr %10, align 8, !tbaa !8
  %15 = load ptr, ptr %6, align 8
  call void @llvm.lifetime.start.p0(i64 8, ptr %11) #13
  %16 = getelementptr inbounds nuw %"class.duckdb_mbedtls::MbedTlsWrapper::AESGCMStateMBEDTLS", ptr %15, i32 0, i32 2
  %17 = load ptr, ptr %16, align 8, !tbaa !45
  store ptr %17, ptr %11, align 8, !tbaa !46
  call void @llvm.lifetime.start.p0(i64 8, ptr %12) #13
  %18 = load ptr, ptr %11, align 8, !tbaa !46
  %19 = load ptr, ptr %7, align 8, !tbaa !3
  %20 = load i64, ptr %8, align 8, !tbaa !8
  %21 = load ptr, ptr %9, align 8, !tbaa !3
  %22 = load i64, ptr %10, align 8, !tbaa !8
  %23 = call i32 @mbedtls_gcm_finish(ptr noundef %18, ptr noundef %19, i64 noundef %20, ptr noundef %12, ptr noundef %21, i64 noundef %22)
  %24 = icmp ne i32 %23, 0
  br i1 %24, label %25, label %32

25:                                               ; preds = %5
  %26 = call ptr @__cxa_allocate_exception(i64 16) #13
  invoke void @_ZNSt13runtime_errorC1EPKc(ptr noundef nonnull align 8 dereferenceable(16) %26, ptr noundef @.str.12)
          to label %27 unwind label %28

27:                                               ; preds = %25
  call void @__cxa_throw(ptr %26, ptr @_ZTISt13runtime_error, ptr @_ZNSt13runtime_errorD1Ev) #14
  unreachable

28:                                               ; preds = %25
  %29 = landingpad { ptr, i32 }
          cleanup
  %30 = extractvalue { ptr, i32 } %29, 0
  store ptr %30, ptr %13, align 8
  %31 = extractvalue { ptr, i32 } %29, 1
  store i32 %31, ptr %14, align 4
  call void @__cxa_free_exception(ptr %26) #13
  call void @llvm.lifetime.end.p0(i64 8, ptr %12) #13
  call void @llvm.lifetime.end.p0(i64 8, ptr %11) #13
  br label %34

32:                                               ; preds = %5
  %33 = load i64, ptr %12, align 8, !tbaa !8
  call void @llvm.lifetime.end.p0(i64 8, ptr %12) #13
  call void @llvm.lifetime.end.p0(i64 8, ptr %11) #13
  ret i64 %33

34:                                               ; preds = %28
  %35 = load ptr, ptr %13, align 8
  %36 = load i32, ptr %14, align 4
  %37 = insertvalue { ptr, i32 } poison, ptr %35, 0
  %38 = insertvalue { ptr, i32 } %37, i32 %36, 1
  resume { ptr, i32 } %38
}